target datalayout = "e-m:e-p270:32:32-p271:32:32-p272:64:64-i64:64-i128:128-f80:128-n8:16:32:64-S128"
target triple = "x86_64-pc-linux-gnu"

%struct.lua_State = type { %struct.GCRef, i8, i8, i8, i8, %struct.MRef, %struct.GCRef, ptr, ptr, %struct.MRef, %struct.MRef, %struct.GCRef, %struct.GCRef, ptr, i32 }
%struct.MRef = type { i64 }
%struct.GCRef = type { i64 }
%union.TValue = type { i64 }

; Function Attrs: nounwind uwtable
define internal i32 @lj_ffh_math_min(ptr noundef %0) #0 {
  %2 = alloca ptr, align 8
  %3 = alloca i32, align 4
  store ptr %0, ptr %2, align 8, !tbaa !4
  call void @llvm.lifetime.start.p0(i64 4, ptr %3) #7
  store i32 0, ptr %3, align 4, !tbaa !22
  br label %4

4:                                                ; preds = %9, %1
  %5 = load ptr, ptr %2, align 8, !tbaa !4
  %6 = load i32, ptr %3, align 4, !tbaa !22
  %7 = add nsw i32 %6, 1
  store i32 %7, ptr %3, align 4, !tbaa !22
  %8 = call double @lj_lib_checknum(ptr noundef %5, i32 noundef %7)
  br label %9

9:                                                ; preds = %4
  %10 = load ptr, ptr %2, align 8, !tbaa !4
  %11 = getelementptr inbounds nuw %struct.lua_State, ptr %10, i32 0, i32 7
  %12 = load ptr, ptr %11, align 8, !tbaa !15
  %13 = load i32, ptr %3, align 4, !tbaa !22
  %14 = sext i32 %13 to i64
  %15 = getelementptr inbounds %union.TValue, ptr %12, i64 %14
  %16 = load ptr, ptr %2, align 8, !tbaa !4
  %17 = getelementptr inbounds nuw %struct.lua_State, ptr %16, i32 0, i32 8
  %18 = load ptr, ptr %17, align 8, !tbaa !21
  %19 = icmp ult ptr %15, %18
  br i1 %19, label %4, label %20, !llvm.loop !24

20:                                               ; preds = %9
  call void @llvm.lifetime.end.p0(i64 4, ptr %3) #7
  ret i32 0
}