; Function Attrs: nounwind uwtable
define internal noundef i32 @lj_ffh_math_min(ptr noundef %0) #0 {
  %2 = getelementptr inbounds nuw i8, ptr %0, i64 32
  %3 = getelementptr inbounds nuw i8, ptr %0, i64 40
  br label %4

4:                                                ; preds = %4, %1
  %indvars.iv = phi i64 [ %indvars.iv.next, %4 ], [ 0, %1 ]
  %indvars.iv.next = add nuw nsw i64 %indvars.iv, 1
  %5 = trunc nuw nsw i64 %indvars.iv.next to i32
  %6 = tail call double @lj_lib_checknum(ptr noundef %0, i32 noundef %5) #5
  %7 = load ptr, ptr %2, align 8, !tbaa !8
  %8 = getelementptr inbounds nuw %union.TValue, ptr %7, i64 %indvars.iv.next
  %9 = load ptr, ptr %3, align 8, !tbaa !15
  %10 = icmp ult ptr %8, %9
  br i1 %10, label %4, label %11, !llvm.loop !18

11:                                               ; preds = %4
  ret i32 0
}